#include <math.h>
#include <stdio.h>
#include <stdlib.h>
#include <string.h>


int main()
{
    int i,n;
    char str[100010],*p, ans ;
    int c[26]={0};
    //freopen("input.txt","r",stdin);
    //freopen("output.txt","w",stdout);
    scanf("%d", &n);
    while (n--)
    {
          memset(c,0,sizeof(c));
          scanf("%s", str);
          ans = '@';
          for (p = str; *p; p++)
              c[*p - 'a']++;
          for (p = str; *p; p++)
              if (c[*p - 'a'] == 1) 
              {
               ans = *p;
               break;
               }
          if (ans == '@') printf("no\n");
          else printf("%c\n", ans);
    }
    return 0;
}
