; ModuleID = '37/367.c'
source_filename = "37/367.c"
target datalayout = "e-m:e-p270:32:32-p271:32:32-p272:64:64-i64:64-f80:128-n8:16:32:64-S128"
target triple = "x86_64-pc-linux-gnu"

@.str = private unnamed_addr constant [3 x i8] c"%d\00", align 1
@.str.1 = private unnamed_addr constant [3 x i8] c"%s\00", align 1
@.str.2 = private unnamed_addr constant [4 x i8] c"no\0A\00", align 1
@.str.3 = private unnamed_addr constant [4 x i8] c"%c\0A\00", align 1

; Function Attrs: noinline nounwind uwtable
define dso_local i32 @main() #0 {
  %1 = alloca i32, align 4
  %2 = alloca i32, align 4
  %3 = alloca i32, align 4
  %4 = alloca [100010 x i8], align 16
  %5 = alloca i8*, align 8
  %6 = alloca i8, align 1
  %7 = alloca [26 x i32], align 16
  store i32 0, i32* %1, align 4
  %8 = bitcast [26 x i32]* %7 to i8*
  call void @llvm.memset.p0i8.i64(i8* align 16 %8, i8 0, i64 104, i1 false)
  %9 = call i32 (i8*, ...) @__isoc99_scanf(i8* getelementptr inbounds ([3 x i8], [3 x i8]* @.str, i64 0, i64 0), i32* %3)
  br label %10

10:                                               ; preds = %68, %0
  %11 = load i32, i32* %3, align 4
  %12 = add nsw i32 %11, -1
  store i32 %12, i32* %3, align 4
  %13 = icmp ne i32 %11, 0
  br i1 %13, label %14, label %69

14:                                               ; preds = %10
  %15 = getelementptr inbounds [26 x i32], [26 x i32]* %7, i64 0, i64 0
  %16 = bitcast i32* %15 to i8*
  call void @llvm.memset.p0i8.i64(i8* align 16 %16, i8 0, i64 104, i1 false)
  %17 = getelementptr inbounds [100010 x i8], [100010 x i8]* %4, i64 0, i64 0
  %18 = call i32 (i8*, ...) @__isoc99_scanf(i8* getelementptr inbounds ([3 x i8], [3 x i8]* @.str.1, i64 0, i64 0), i8* %17)
  store i8 64, i8* %6, align 1
  %19 = getelementptr inbounds [100010 x i8], [100010 x i8]* %4, i64 0, i64 0
  store i8* %19, i8** %5, align 8
  br label %20

20:                                               ; preds = %33, %14
  %21 = load i8*, i8** %5, align 8
  %22 = load i8, i8* %21, align 1
  %23 = icmp ne i8 %22, 0
  br i1 %23, label %24, label %36

24:                                               ; preds = %20
  %25 = load i8*, i8** %5, align 8
  %26 = load i8, i8* %25, align 1
  %27 = sext i8 %26 to i32
  %28 = sub nsw i32 %27, 97
  %29 = sext i32 %28 to i64
  %30 = getelementptr inbounds [26 x i32], [26 x i32]* %7, i64 0, i64 %29
  %31 = load i32, i32* %30, align 4
  %32 = add nsw i32 %31, 1
  store i32 %32, i32* %30, align 4
  br label %33

33:                                               ; preds = %24
  %34 = load i8*, i8** %5, align 8
  %35 = getelementptr inbounds i8, i8* %34, i32 1
  store i8* %35, i8** %5, align 8
  br label %20

36:                                               ; preds = %20
  %37 = getelementptr inbounds [100010 x i8], [100010 x i8]* %4, i64 0, i64 0
  store i8* %37, i8** %5, align 8
  br label %38

38:                                               ; preds = %55, %36
  %39 = load i8*, i8** %5, align 8
  %40 = load i8, i8* %39, align 1
  %41 = icmp ne i8 %40, 0
  br i1 %41, label %42, label %58

42:                                               ; preds = %38
  %43 = load i8*, i8** %5, align 8
  %44 = load i8, i8* %43, align 1
  %45 = sext i8 %44 to i32
  %46 = sub nsw i32 %45, 97
  %47 = sext i32 %46 to i64
  %48 = getelementptr inbounds [26 x i32], [26 x i32]* %7, i64 0, i64 %47
  %49 = load i32, i32* %48, align 4
  %50 = icmp eq i32 %49, 1
  br i1 %50, label %51, label %54

51:                                               ; preds = %42
  %52 = load i8*, i8** %5, align 8
  %53 = load i8, i8* %52, align 1
  store i8 %53, i8* %6, align 1
  br label %58

54:                                               ; preds = %42
  br label %55

55:                                               ; preds = %54
  %56 = load i8*, i8** %5, align 8
  %57 = getelementptr inbounds i8, i8* %56, i32 1
  store i8* %57, i8** %5, align 8
  br label %38

58:                                               ; preds = %51, %38
  %59 = load i8, i8* %6, align 1
  %60 = sext i8 %59 to i32
  %61 = icmp eq i32 %60, 64
  br i1 %61, label %62, label %64

62:                                               ; preds = %58
  %63 = call i32 (i8*, ...) @printf(i8* getelementptr inbounds ([4 x i8], [4 x i8]* @.str.2, i64 0, i64 0))
  br label %68

64:                                               ; preds = %58
  %65 = load i8, i8* %6, align 1
  %66 = sext i8 %65 to i32
  %67 = call i32 (i8*, ...) @printf(i8* getelementptr inbounds ([4 x i8], [4 x i8]* @.str.3, i64 0, i64 0), i32 %66)
  br label %68

68:                                               ; preds = %64, %62
  br label %10

69:                                               ; preds = %10
  ret i32 0
}

; Function Attrs: argmemonly nounwind willreturn
declare void @llvm.memset.p0i8.i64(i8* nocapture writeonly, i8, i64, i1 immarg) #1

declare dso_local i32 @__isoc99_scanf(i8*, ...) #2

declare dso_local i32 @printf(i8*, ...) #2


!llvm.module.flags = !{!0}
!llvm.ident = !{!1}

!0 = !{i32 1, !"wchar_size", i32 4}
!1 = !{!"clang version 10.0.0-4ubuntu1 "}
