; ModuleID = 'source-C-CXX/36/367.c'
source_filename = "source-C-CXX/36/367.c"
target datalayout = "e-m:e-p270:32:32-p271:32:32-p272:64:64-i64:64-f80:128-n8:16:32:64-S128"
target triple = "x86_64-pc-linux-gnu"

@.str = private unnamed_addr constant [3 x i8] c"%d\00", align 1
@.str.1 = private unnamed_addr constant [3 x i8] c"%s\00", align 1
@.str.3 = private unnamed_addr constant [4 x i8] c"%c\0A\00", align 1
@str = private unnamed_addr constant [3 x i8] c"no\00", align 1

; Function Attrs: nofree nounwind sspstrong uwtable
define dso_local i32 @main() local_unnamed_addr #0 {
  %1 = alloca i32, align 4
  %2 = alloca [100010 x i8], align 16
  %3 = alloca [26 x i32], align 16
  %4 = bitcast i32* %1 to i8*
  call void @llvm.lifetime.start.p0i8(i64 4, i8* nonnull %4) #5
  %5 = getelementptr inbounds [100010 x i8], [100010 x i8]* %2, i64 0, i64 0
  call void @llvm.lifetime.start.p0i8(i64 100010, i8* nonnull %5) #5
  %6 = bitcast [26 x i32]* %3 to i8*
  call void @llvm.lifetime.start.p0i8(i64 104, i8* nonnull %6) #5
  %7 = call i32 (i8*, ...) @__isoc99_scanf(i8* getelementptr inbounds ([3 x i8], [3 x i8]* @.str, i64 0, i64 0), i32* nonnull %1)
  %8 = load i32, i32* %1, align 4, !tbaa !5
  %9 = add nsw i32 %8, -1
  store i32 %9, i32* %1, align 4, !tbaa !5
  %10 = icmp eq i32 %8, 0
  br i1 %10, label %50, label %11

11:                                               ; preds = %0, %46
  call void @llvm.memset.p0i8.i64(i8* noundef nonnull align 16 dereferenceable(104) %6, i8 0, i64 104, i1 false)
  %12 = call i32 (i8*, ...) @__isoc99_scanf(i8* getelementptr inbounds ([3 x i8], [3 x i8]* @.str.1, i64 0, i64 0), i8* nonnull %5)
  %13 = load i8, i8* %5, align 16, !tbaa !9
  %14 = icmp eq i8 %13, 0
  br i1 %14, label %41, label %16

15:                                               ; preds = %16
  br i1 %14, label %41, label %30

16:                                               ; preds = %11, %16
  %17 = phi i8 [ %25, %16 ], [ %13, %11 ]
  %18 = phi i8* [ %24, %16 ], [ %5, %11 ]
  %19 = sext i8 %17 to i64
  %20 = add nsw i64 %19, -97
  %21 = getelementptr inbounds [26 x i32], [26 x i32]* %3, i64 0, i64 %20
  %22 = load i32, i32* %21, align 4, !tbaa !5
  %23 = add nsw i32 %22, 1
  store i32 %23, i32* %21, align 4, !tbaa !5
  %24 = getelementptr inbounds i8, i8* %18, i64 1
  %25 = load i8, i8* %24, align 1, !tbaa !9
  %26 = icmp eq i8 %25, 0
  br i1 %26, label %15, label %16, !llvm.loop !10

27:                                               ; preds = %30
  %28 = load i8, i8* %38, align 1, !tbaa !9
  %29 = icmp eq i8 %28, 0
  br i1 %29, label %41, label %30, !llvm.loop !12

30:                                               ; preds = %15, %27
  %31 = phi i8 [ %28, %27 ], [ %13, %15 ]
  %32 = phi i8* [ %38, %27 ], [ %5, %15 ]
  %33 = sext i8 %31 to i64
  %34 = add nsw i64 %33, -97
  %35 = getelementptr inbounds [26 x i32], [26 x i32]* %3, i64 0, i64 %34
  %36 = load i32, i32* %35, align 4, !tbaa !5
  %37 = icmp eq i32 %36, 1
  %38 = getelementptr inbounds i8, i8* %32, i64 1
  br i1 %37, label %39, label %27

39:                                               ; preds = %30
  %40 = icmp eq i8 %31, 64
  br i1 %40, label %41, label %43

41:                                               ; preds = %27, %11, %15, %39
  %42 = call i32 @puts(i8* nonnull dereferenceable(1) getelementptr inbounds ([3 x i8], [3 x i8]* @str, i64 0, i64 0))
  br label %46

43:                                               ; preds = %39
  %44 = sext i8 %31 to i32
  %45 = call i32 (i8*, ...) @printf(i8* nonnull dereferenceable(1) getelementptr inbounds ([4 x i8], [4 x i8]* @.str.3, i64 0, i64 0), i32 %44)
  br label %46

46:                                               ; preds = %43, %41
  %47 = load i32, i32* %1, align 4, !tbaa !5
  %48 = add nsw i32 %47, -1
  store i32 %48, i32* %1, align 4, !tbaa !5
  %49 = icmp eq i32 %47, 0
  br i1 %49, label %50, label %11, !llvm.loop !13

50:                                               ; preds = %46, %0
  call void @llvm.lifetime.end.p0i8(i64 104, i8* nonnull %6) #5
  call void @llvm.lifetime.end.p0i8(i64 100010, i8* nonnull %5) #5
  call void @llvm.lifetime.end.p0i8(i64 4, i8* nonnull %4) #5
  ret i32 0
}

; Function Attrs: argmemonly mustprogress nofree nosync nounwind willreturn
declare void @llvm.lifetime.start.p0i8(i64 immarg, i8* nocapture) #1

; Function Attrs: argmemonly mustprogress nofree nounwind willreturn writeonly
declare void @llvm.memset.p0i8.i64(i8* nocapture writeonly, i8, i64, i1 immarg) #2

; Function Attrs: nofree nounwind
declare noundef i32 @__isoc99_scanf(i8* nocapture noundef readonly, ...) local_unnamed_addr #3

; Function Attrs: nofree nounwind
declare noundef i32 @printf(i8* nocapture noundef readonly, ...) local_unnamed_addr #3

; Function Attrs: argmemonly mustprogress nofree nosync nounwind willreturn
declare void @llvm.lifetime.end.p0i8(i64 immarg, i8* nocapture) #1

; Function Attrs: nofree nounwind
declare noundef i32 @puts(i8* nocapture noundef readonly) local_unnamed_addr #4


!llvm.module.flags = !{!0, !1, !2, !3}
!llvm.ident = !{!4}

!0 = !{i32 1, !"wchar_size", i32 4}
!1 = !{i32 7, !"PIC Level", i32 2}
!2 = !{i32 7, !"PIE Level", i32 2}
!3 = !{i32 7, !"uwtable", i32 1}
!4 = !{!"clang version 13.0.0"}
!5 = !{!6, !6, i64 0}
!6 = !{!"int", !7, i64 0}
!7 = !{!"omnipotent char", !8, i64 0}
!8 = !{!"Simple C/C++ TBAA"}
!9 = !{!7, !7, i64 0}
!10 = distinct !{!10, !11}
!11 = !{!"llvm.loop.mustprogress"}
!12 = distinct !{!12, !11}
!13 = distinct !{!13, !11}
